; Function Attrs: mustprogress uwtable
define void @_ZN3nix38ValuePrintingTests_ansiColorsNull_Test8TestBodyEv(ptr noundef nonnull align 8 dereferenceable(1272) %0) unnamed_addr #4 align 2 {
  %.sroa.22 = alloca [20 x i8], align 4
  %2 = alloca %"struct.nix::Value", align 8
  %3 = alloca %"struct.nix::PrintOptions", align 8
  %.sroa.22.4..sroa_idx = getelementptr inbounds i8, ptr %.sroa.22, i64 4
  call void @llvm.memset.p0.i64(ptr noundef nonnull align 4 dereferenceable(16) %.sroa.22.4..sroa_idx, i8 0, i64 16, i1 false)
  store i32 5, ptr %2, align 8
  %.sroa.22.0..sroa_idx = getelementptr inbounds i8, ptr %2, i64 4
  call void @llvm.memcpy.p0.p0.i64(ptr noundef nonnull align 4 dereferenceable(20) %.sroa.22.0..sroa_idx, ptr noundef nonnull align 4 dereferenceable(20) %.sroa.22, i64 20, i1 false)
  store <4 x i8> <i8 1, i8 0, i8 0, i8 1>, ptr %3, align 8
  %4 = getelementptr inbounds i8, ptr %3, i64 8
  %5 = getelementptr inbounds i8, ptr %3, i64 40
  call void @llvm.memset.p0.i64(ptr noundef nonnull align 8 dereferenceable(32) %4, i8 -1, i64 32, i1 false)
  store i64 0, ptr %5, align 8
  tail call void @_ZN3nix18ValuePrintingTests4testIJNS_12PrintOptionsEEEEvNS_5ValueESt17basic_string_viewIcSt11char_traitsIcEEDpT_(ptr noundef nonnull align 8 dereferenceable(1272) %0, ptr noundef nonnull byval(%"struct.nix::Value") align 8 %2, i64 15, ptr nonnull @.str.107, ptr noundef nonnull byval(%"struct.nix::PrintOptions") align 8 %3)
  ret void
}